(lp1
((lp2
S'Nup120'
p3
aS'17'
p4
aS'Nup120'
p5
aS'421'
p6
aS'1'
aS'1'
acnumpy.core.multiarray
scalar
p7
(cnumpy
dtype
p8
(S'f8'
I0
I1
tRp9
(I3
S'<'
NNNI-1
I-1
I0
tbS'81\xdb\x1a\xf3K9@'
tRp10
tp11
a((lp12
S'Nup120'
p13
aS'206'
p14
aS'Nup120'
p15
aS'219'
p16
aS'1'
aS'2'
ag7
(g9
S'\xbc\x0fos\x0c\xda0@'
tRp17
tp18
a((lp19
S'Nup120'
p20
aS'38'
p21
aS'Nup120'
p22
aS'429'
p23
aS'1'
aS'3'
ag7
(g9
S'p\x80\xb6\xf0\x92\xed\n\xc0'
tRp24
tp25
a((lp26
S'Nup120'
p27
aS'400'
p28
aS'Nup120'
p29
aS'440'
p30
aS'1'
aS'4'
ag7
(g9
S'\x17\x15\x9c\xc7\x8a\x193@'
tRp31
tp32
a((lp33
S'Nup120'
p34
aS'400'
p35
aS'Nup120'
p36
aS'441'
p37
aS'1'
aS'4'
ag7
(g9
S'\xd4\x02\xd2\xac\x1a\x842@'
tRp38
tp39
a((lp40
S'Nup120'
p41
aS'400'
p42
aS'Nup120'
p43
aS'523'
p44
aS'1'
aS'5'
ag7
(g9
S'Ze\xa3\xb0\x1c\x135@'
tRp45
tp46
a((lp47
S'Nup120'
p48
aS'735'
p49
aS'Nup120'
p50
aS'403'
p51
aS'1'
aS'6'
ag7
(g9
S'\x88\xb3\x8c\x97Q\xd8*\xc0'
tRp52
tp53
a((lp54
S'Nup120'
p55
aS'735'
p56
aS'Nup120'
p57
aS'405'
p58
aS'1'
aS'6'
ag7
(g9
S',s\xa7XT\x07#\xc0'
tRp59
tp60
a((lp61
S'Nup120'
p62
aS'865'
p63
aS'Nup120'
p64
aS'894'
p65
aS'1'
aS'7'
ag7
(g9
S'\xcb\x1b` \xec\xd12@'
tRp66
tp67
a((lp68
S'Nup120'
p69
aS'865'
p70
aS'Nup120'
p71
aS'898'
p72
aS'1'
aS'7'
ag7
(g9
S'\xcb\x1b` \xec\xd12@'
tRp73
tp74
a((lp75
S'Nup133'
p76
aS'103'
p77
aS'Nup133'
p78
aS'130'
p79
aS'1'
aS'8'
ag7
(g9
S';i\xd7\xc6\xe3\xc45@'
tRp80
tp81
a((lp82
S'Nup133'
p83
aS'103'
p84
aS'Nup133'
p85
aS'131'
p86
aS'1'
aS'8'
ag7
(g9
S';i\xd7\xc6\xe3\xc45@'
tRp87
tp88
a((lp89
S'Nup133'
p90
aS'1072'
p91
aS'Nup133'
p92
aS'1032'
p93
aS'1'
aS'9'
ag7
(g9
S'\n\xb2\x12`\xa5\xb5-@'
tRp94
tp95
a((lp96
S'Nup133'
p97
aS'1142'
p98
aS'Nup133'
p99
aS'1068'
p100
aS'1'
aS'10'
p101
ag7
(g9
S'kL\xa2\x81{\xac5@'
tRp102
tp103
a((lp104
S'Nup133'
p105
aS'1142'
p106
aS'Nup133'
p107
aS'1069'
p108
aS'1'
aS'10'
p109
ag7
(g9
S'\xb0R\xedo\xa0\x193@'
tRp110
tp111
a((lp112
S'Nup133'
p113
aS'1144'
p114
aS'Nup133'
p115
aS'1068'
p116
aS'1'
aS'11'
p117
ag7
(g9
S'?\xc0lF\x99\xfb8@'
tRp118
tp119
a((lp120
S'Nup133'
p121
aS'168'
p122
aS'Nup133'
p123
aS'131'
p124
aS'1'
aS'12'
p125
ag7
(g9
S'\xa1\xb0\x1f%%_6@'
tRp126
tp127
a((lp128
S'Nup133'
p129
aS'171'
p130
aS'Nup133'
p131
aS'127'
p132
aS'1'
aS'13'
p133
ag7
(g9
S'\xea\x0ez\x83\x90j3@'
tRp134
tp135
a((lp136
S'Nup133'
p137
aS'171'
p138
aS'Nup133'
p139
aS'195'
p140
aS'1'
aS'14'
p141
ag7
(g9
S'\x82\xabE\xbf56>@'
tRp142
tp143
a((lp144
S'Nup133'
p145
aS'171'
p146
aS'Nup133'
p147
aS'197'
p148
aS'1'
aS'14'
p149
ag7
(g9
S'\x10\x11\xa8&\xe52<@'
tRp150
tp151
a((lp152
S'Nup133'
p153
aS'187'
p154
aS'Nup133'
p155
aS'127'
p156
aS'1'
aS'15'
p157
ag7
(g9
S'\x1b\xab\xcf\xe5\x8c\x842@'
tRp158
tp159
a((lp160
S'Nup133'
p161
aS'253'
p162
aS'Nup84'
p163
aS'340'
p164
aS'1'
aS'16'
p165
ag7
(g9
S'$\x99\x05\xef\xb4fb\xc0'
tRp166
tp167
a((lp168
S'Nup133'
p169
aS'394'
p170
aS'Nup133'
p171
aS'454'
p172
aS'1'
aS'17'
p173
ag7
(g9
S'v\xe8Q\xe9nr8@'
tRp174
tp175
a((lp176
S'Nup133'
p177
aS'480'
p178
aS'Nup133'
p179
aS'63'
p180
aS'1'
aS'18'
p181
ag7
(g9
S'\xf2\x1a\xe7.\xf4G0@'
tRp182
tp183
a((lp184
S'Nup133'
p185
aS'486'
p186
aS'Nup133'
p187
aS'442'
p188
aS'1'
aS'19'
p189
ag7
(g9
S'66WR\xd9S4@'
tRp190
tp191
a((lp192
S'Nup133'
p193
aS'484'
p194
aS'Nup133'
p195
aS'442'
p196
aS'1'
aS'20'
p197
ag7
(g9
S'66WR\xd9S4@'
tRp198
tp199
a((lp200
S'Nup133'
p201
aS'506'
p202
aS'Nup133'
p203
aS'562'
p204
aS'1'
aS'21'
p205
ag7
(g9
S'Kn*\xf9\xd5K8@'
tRp206
tp207
a((lp208
S'Nup133'
p209
aS'912'
p210
aS'Nup133'
p211
aS'1097'
p212
aS'1'
aS'22'
p213
ag7
(g9
S'\xf7XLJ*\x0f1@'
tRp214
tp215
a((lp216
S'Nup133'
p217
aS'913'
p218
aS'Nup133'
p219
aS'1097'
p220
aS'1'
aS'22'
p221
ag7
(g9
S'tV\x8a\x80na/@'
tRp222
tp223
a((lp224
S'Nup133'
p225
aS'913'
p226
aS'Nup133'
p227
aS'989'
p228
aS'1'
aS'23'
p229
ag7
(g9
S'ZV\xfa\xc8\xc3\xf16@'
tRp230
tp231
a((lp232
S'Nup133'
p233
aS'936'
p234
aS'Nup133'
p235
aS'392'
p236
aS'1'
aS'24'
p237
ag7
(g9
S'\xfe\xbf\x94\na\x9eN\xc0'
tRp238
tp239
a((lp240
S'Nup133'
p241
aS'936'
p242
aS'Nup133'
p243
aS'952'
p244
aS'1'
aS'25'
p245
ag7
(g9
S'\xf6\x19\xbc\xf7\xa8 "@'
tRp246
tp247
a((lp248
S'Nup133'
p249
aS'936'
p250
aS'Nup84'
p251
aS'713'
p252
aS'1'
aS'26'
p253
ag7
(g9
S'\xb0g\xfe\x04\xbe51@'
tRp254
tp255
a((lp256
S'Nup133'
p257
aS'946'
p258
aS'Nup133'
p259
aS'1097'
p260
aS'1'
aS'27'
p261
ag7
(g9
S'\x1c\x99;+6\xbd\x1a@'
tRp262
tp263
a((lp264
S'Nup133'
p265
aS'946'
p266
aS'Nup133'
p267
aS'935'
p268
aS'1'
aS'28'
p269
ag7
(g9
S'\x84!\xca\xedh\x803@'
tRp270
tp271
a((lp272
S'Nup145c'
p273
aS'141'
p274
aS'Seh1'
p275
aS'284'
p276
aS'1'
aS'29'
p277
ag7
(g9
S"j\xa78)\xa9\x95'@"
tRp278
tp279
a((lp280
S'Nup145c'
p281
aS'183'
p282
aS'Nup145c'
p283
aS'226'
p284
aS'1'
aS'30'
p285
ag7
(g9
S'L1\xfd\x00\xad\xed4@'
tRp286
tp287
a((lp288
S'Nup145c'
p289
aS'183'
p290
aS'Nup145c'
p291
aS'231'
p292
aS'1'
aS'31'
p293
ag7
(g9
S'RL\xff\x10`W6@'
tRp294
tp295
a((lp296
S'Nup145c'
p297
aS'193'
p298
aS'Nup145c'
p299
aS'220'
p300
aS'1'
aS'32'
p301
ag7
(g9
S'\xee\\\xd5\xc8N\xad9@'
tRp302
tp303
a((lp304
S'Nup145c'
p305
aS'193'
p306
aS'Nup145c'
p307
aS'223'
p308
aS'1'
aS'32'
p309
ag7
(g9
S'\xe4\xdaQ\x07uk7@'
tRp310
tp311
a((lp312
S'Nup145c'
p313
aS'219'
p314
aS'Nup145c'
p315
aS'187'
p316
aS'1'
aS'33'
p317
ag7
(g9
S'c=\x9c\x82R\xa73@'
tRp318
tp319
a((lp320
S'Nup145c'
p321
aS'219'
p322
aS'Nup145c'
p323
aS'231'
p324
aS'1'
aS'34'
p325
ag7
(g9
S'\x173^\xf1\x8e\x8b7@'
tRp326
tp327
a((lp328
S'Nup145c'
p329
aS'250'
p330
aS'Nup145c'
p331
aS'213'
p332
aS'1'
aS'35'
p333
ag7
(g9
S'\xdc\xaf\xaf2\xbd\xf9\x1f@'
tRp334
tp335
a((lp336
S'Nup145c'
p337
aS'309'
p338
aS'Nup145c'
p339
aS'293'
p340
aS'1'
aS'36'
p341
ag7
(g9
S'Dz\x13*\xc3\xa8:@'
tRp342
tp343
a((lp344
S'Nup145c'
p345
aS'39'
p346
aS'Nup145c'
p347
aS'22'
p348
aS'1'
aS'37'
p349
ag7
(g9
S'\x00\x00\x00\x00\x00\x80A@'
tRp350
tp351
a((lp352
S'Nup145c'
p353
aS'39'
p354
aS'Nup145c'
p355
aS'60'
p356
aS'1'
aS'38'
p357
ag7
(g9
S'\\\xfaf\xc1u\x95+@'
tRp358
tp359
a((lp360
S'Nup145c'
p361
aS'39'
p362
aS'Nup145c'
p363
aS'61'
p364
aS'1'
aS'38'
p365
ag7
(g9
S'\\\xfaf\xc1u\x95+@'
tRp366
tp367
a((lp368
S'Nup145c'
p369
aS'39'
p370
aS'Nup85'
p371
aS'715'
p372
aS'1'
aS'39'
p373
ag7
(g9
S'\xa0\xed\xc9 iq\x1a\xc0'
tRp374
tp375
a((lp376
S'Nup145c'
p377
aS'39'
p378
aS'Nup85'
p379
aS'717'
p380
aS'1'
aS'39'
p381
ag7
(g9
S'\xd0hEg\xf1\xac\r\xc0'
tRp382
tp383
a((lp384
S'Nup145c'
p385
aS'39'
p386
aS'Seh1'
p387
aS'138'
p388
aS'1'
aS'40'
p389
ag7
(g9
S'fQ\xd5v\x8b\x180@'
tRp390
tp391
a((lp392
S'Nup145c'
p393
aS'39'
p394
aS'Seh1'
p395
aS'141'
p396
aS'1'
aS'40'
p397
ag7
(g9
S'\xf5\xb8\xa8\xcb2\xf22@'
tRp398
tp399
a((lp400
S'Nup145c'
p401
aS'43'
p402
aS'Seh1'
p403
aS'138'
p404
aS'1'
aS'40'
p405
ag7
(g9
S'\xce{1\xe8\x99\x97&@'
tRp406
tp407
a((lp408
S'Nup145c'
p409
aS'43'
p410
aS'Seh1'
p411
aS'141'
p412
aS'1'
aS'40'
p413
ag7
(g9
S'\x9c\x89\x00\xc0?y-@'
tRp414
tp415
a((lp416
S'Nup145c'
p417
aS'39'
p418
aS'Nup85'
p419
aS'587'
p420
aS'1'
aS'41'
p421
ag7
(g9
S'x/\xcf\xfa6\xaf\x13\xc0'
tRp422
tp423
a((lp424
S'Nup145c'
p425
aS'43'
p426
aS'Nup85'
p427
aS'587'
p428
aS'1'
aS'41'
p429
ag7
(g9
S'0\xed4vW\xb4\x04\xc0'
tRp430
tp431
a((lp432
S'Nup145c'
p433
aS'39'
p434
aS'Nup85'
p435
aS'164'
p436
aS'1'
aS'42'
p437
ag7
(g9
S'\xd2\xef\x91\xea\xd4\x89:\xc0'
tRp438
tp439
a((lp440
S'Nup145c'
p441
aS'59'
p442
aS'Nup145c'
p443
aS'42'
p444
aS'1'
aS'43'
p445
ag7
(g9
S'\x00\x00\x00\x00\x00\x80A@'
tRp446
tp447
a((lp448
S'Nup145c'
p449
aS'593'
p450
aS'Nup145c'
p451
aS'201'
p452
aS'1'
aS'44'
p453
ag7
(g9
S'\xf8^\xb8\xc5@\xe6<\xc0'
tRp454
tp455
a((lp456
S'Nup145c'
p457
aS'62'
p458
aS'Nup85'
p459
aS'2'
aS'1'
aS'45'
p460
ag7
(g9
S'\xc6[> l\x968\xc0'
tRp461
tp462
a((lp463
S'Nup145c'
p464
aS'63'
p465
aS'Nup85'
p466
aS'2'
aS'1'
aS'45'
p467
ag7
(g9
S'\xc6[> l\x968\xc0'
tRp468
tp469
a((lp470
S'Nup145c'
p471
aS'642'
p472
aS'Nup145c'
p473
aS'686'
p474
aS'1'
aS'46'
p475
ag7
(g9
S'\xa5\xc8\x82\xa1\xc8\x812@'
tRp476
tp477
a((lp478
S'Nup145c'
p479
aS'672'
p480
aS'Nup145c'
p481
aS'700'
p482
aS'1'
aS'47'
p483
ag7
(g9
S'Z\xf6\xb0\xc9\xb0\xf91@'
tRp484
tp485
a((lp486
S'Nup145c'
p487
aS'681'
p488
aS'Nup145c'
p489
aS'700'
p490
aS'1'
aS'48'
p491
ag7
(g9
S'o\xe6\xb4\x98\r\xfb1@'
tRp492
tp493
a((lp494
S'Nup145c'
p495
aS'681'
p496
aS'Nup145c'
p497
aS'704'
p498
aS'1'
aS'48'
p499
ag7
(g9
S'o\xe6\xb4\x98\r\xfb1@'
tRp500
tp501
a((lp502
S'Nup145c'
p503
aS'683'
p504
aS'Nup145c'
p505
aS'679'
p506
aS'1'
aS'49'
p507
ag7
(g9
S'\x00\x00\x00\x00\x00\x80A@'
tRp508
tp509
a((lp510
S'Nup145c'
p511
aS'91'
p512
aS'Nup145c'
p513
aS'44'
p514
aS'1'
aS'50'
p515
ag7
(g9
S'\xaa\xf8K\xb0\xf4\xf40@'
tRp516
tp517
a((lp518
S'Nup145c'
p519
aS'91'
p520
aS'Nup145c'
p521
aS'60'
p522
aS'1'
aS'51'
p523
ag7
(g9
S'\x8e\xe4\xfax\x99\xc5/@'
tRp524
tp525
a((lp526
S'Nup145c'
p527
aS'91'
p528
aS'Nup145c'
p529
aS'70'
p530
aS'1'
aS'52'
p531
ag7
(g9
S'\x8e\xe4\xfax\x99\xc5/@'
tRp532
tp533
a((lp534
S'Nup84'
p535
aS'143'
p536
aS'Nup145c'
p537
aS'335'
p538
aS'1'
aS'53'
p539
ag7
(g9
S'\x0c\x05\xb3\xa2N\x1b@\xc0'
tRp540
tp541
a((lp542
S'Nup84'
p543
aS'143'
p544
aS'Nup84'
p545
aS'164'
p546
aS'1'
aS'54'
p547
ag7
(g9
S'\x1a72r\xb4\xfe2@'
tRp548
tp549
a((lp550
S'Nup84'
p551
aS'143'
p552
aS'Nup84'
p553
aS'173'
p554
aS'1'
aS'55'
p555
ag7
(g9
S'\x9e[\xa1\x8d9\xf5:@'
tRp556
tp557
a((lp558
S'Nup84'
p559
aS'143'
p560
aS'Nup84'
p561
aS'175'
p562
aS'1'
aS'55'
p563
ag7
(g9
S'i\x8b2&*\xa2:@'
tRp564
tp565
a((lp566
S'Nup84'
p567
aS'154'
p568
aS'Nup145c'
p569
aS'335'
p570
aS'1'
aS'56'
p571
ag7
(g9
S'\x86\x9b}\xaee_;\xc0'
tRp572
tp573
a((lp574
S'Nup84'
p575
aS'154'
p576
aS'Nup145c'
p577
aS'338'
p578
aS'1'
aS'56'
p579
ag7
(g9
S'P\r~oZ8<\xc0'
tRp580
tp581
a((lp582
S'Nup84'
p583
aS'544'
p584
aS'Nup84'
p585
aS'565'
p586
aS'1'
aS'57'
p587
ag7
(g9
S'\x00K\xbe\x14|K\x1a@'
tRp588
tp589
a((lp590
S'Nup84'
p591
aS'544'
p592
aS'Nup84'
p593
aS'598'
p594
aS'1'
aS'58'
p595
ag7
(g9
S'\xc0U\xad\xbe\xcf30@'
tRp596
tp597
a((lp598
S'Nup84'
p599
aS'592'
p600
aS'Nup84'
p601
aS'626'
p602
aS'1'
aS'59'
p603
ag7
(g9
S'\x94\x00\x08\xa7er;@'
tRp604
tp605
a((lp606
S'Nup84'
p607
aS'619'
p608
aS'Nup84'
p609
aS'599'
p610
aS'1'
aS'60'
p611
ag7
(g9
S'\xd1[\xab\xf4\x98\xe4;@'
tRp612
tp613
a((lp614
S'Nup84'
p615
aS'712'
p616
aS'Nup133'
p617
aS'935'
p618
aS'1'
aS'61'
p619
ag7
(g9
S'\xfc\\N\xcda\x9e1@'
tRp620
tp621
a((lp622
S'Nup85'
p623
aS'14'
p624
aS'Nup85'
p625
aS'2'
aS'1'
aS'62'
p626
ag7
(g9
S'\x00\x00\x00\x00\x00\x80A@'
tRp627
tp628
a((lp629
S'Nup85'
p630
aS'17'
p631
aS'Seh1'
p632
aS'1'
aS'1'
aS'63'
p633
ag7
(g9
S'\xcc\xdc~\x124\x018@'
tRp634
tp635
a((lp636
S'Nup85'
p637
aS'2'
aS'Seh1'
p638
aS'1'
aS'1'
aS'64'
p639
ag7
(g9
S'\xcc\xdc~\x124\x018@'
tRp640
tp641
a((lp642
S'Nup85'
p643
aS'30'
p644
aS'Nup85'
p645
aS'164'
p646
aS'1'
aS'65'
p647
ag7
(g9
S'\xb6g\xd7\x9eY\xd63@'
tRp648
tp649
a((lp650
S'Nup85'
p651
aS'536'
p652
aS'Nup145c'
p653
aS'70'
p654
aS'1'
aS'66'
p655
ag7
(g9
S'\x92\x8a\xd1,\t\x015\xc0'
tRp656
tp657
a((lp658
S'Nup85'
p659
aS'585'
p660
aS'Nup145c'
p661
aS'42'
p662
aS'1'
aS'67'
p663
ag7
(g9
S'\x00+(\xd1J\xcc\xd4?'
tRp664
tp665
a((lp666
S'Nup85'
p667
aS'705'
p668
aS'Seh1'
p669
aS'144'
p670
aS'1'
aS'68'
p671
ag7
(g9
S'\x8c\\\xb1u]\xd7!\xc0'
tRp672
tp673
a((lp674
S'Nup85'
p675
aS'85'
p676
aS'Nup85'
p677
aS'63'
p678
aS'1'
aS'69'
p679
ag7
(g9
S'\xd6E\x82\x1e9\x906@'
tRp680
tp681
a((lp682
S'Nup85'
p683
aS'87'
p684
aS'Nup85'
p685
aS'59'
p686
aS'1'
aS'70'
p687
ag7
(g9
S'\x92\x8f,\x9fw\xe81@'
tRp688
tp689
a((lp690
S'Sec13'
p691
aS'10'
p692
aS'Nup145c'
p693
aS'164'
p694
aS'1'
aS'71'
p695
ag7
(g9
S'&;\x97\xf8#\x13!@'
tRp696
tp697
a((lp698
S'Sec13'
p699
aS'186'
p700
aS'Sec13'
p701
aS'239'
p702
aS'1'
aS'72'
p703
ag7
(g9
S'QT\x0b\x87 \xec4@'
tRp704
tp705
a((lp706
S'Sec13'
p707
aS'2'
aS'Nup120'
p708
aS'990'
p709
aS'1'
aS'73'
p710
ag7
(g9
S'\xd4T\x1eC\xf0Q9\xc0'
tRp711
tp712
a((lp713
S'Sec13'
p714
aS'2'
aS'Nup145c'
p715
aS'164'
p716
aS'1'
aS'74'
p717
ag7
(g9
S"\xc0\xe7\xf3\xfa\x97'7@"
tRp718
tp719
a((lp720
S'Sec13'
p721
aS'2'
aS'Nup145c'
p722
aS'22'
p723
aS'1'
aS'75'
p724
ag7
(g9
S'\xebq\xdai\xb9`2@'
tRp725
tp726
a((lp727
S'Sec13'
p728
aS'2'
aS'Nup145c'
p729
aS'283'
p730
aS'1'
aS'76'
p731
ag7
(g9
S'R\nmn\x13\x13:\xc0'
tRp732
tp733
a((lp734
S'Sec13'
p735
aS'2'
aS'Nup145c'
p736
aS'42'
p737
aS'1'
aS'77'
p738
ag7
(g9
S'X\xb0\xd5\xbdh$2@'
tRp739
tp740
a((lp741
S'Sec13'
p742
aS'2'
aS'Nup145c'
p743
aS'60'
p744
aS'1'
aS'78'
p745
ag7
(g9
S'~\xe8V\xe4\xa9\xda0@'
tRp746
tp747
a((lp748
S'Sec13'
p749
aS'2'
aS'Nup145c'
p750
aS'61'
p751
aS'1'
aS'78'
p752
ag7
(g9
S'~\xe8V\xe4\xa9\xda0@'
tRp753
tp754
a((lp755
S'Sec13'
p756
aS'2'
aS'Nup145c'
p757
aS'72'
p758
aS'1'
aS'79'
p759
ag7
(g9
S'~\xe8V\xe4\xa9\xda0@'
tRp760
tp761
a((lp762
S'Sec13'
p763
aS'2'
aS'Sec13'
p764
aS'37'
p765
aS'1'
aS'80'
p766
ag7
(g9
S'Y\xe9\xbc1l\xff8@'
tRp767
tp768
a((lp769
S'Sec13'
p770
aS'2'
aS'Sec13'
p771
aS'41'
p772
aS'1'
aS'81'
p773
ag7
(g9
S'vs\xf6/\x19M:@'
tRp774
tp775
a((lp776
S'Sec13'
p777
aS'2'
aS'Sec13'
p778
aS'47'
p779
aS'1'
aS'82'
p780
ag7
(g9
S';\xeb5\x9d%@0@'
tRp781
tp782
a((lp783
S'Sec13'
p784
aS'2'
aS'Seh1'
p785
aS'141'
p786
aS'1'
aS'83'
p787
ag7
(g9
S'\xba\x07O\x90)\x8b#@'
tRp788
tp789
a((lp790
S'Sec13'
p791
aS'2'
aS'Seh1'
p792
aS'279'
p793
aS'1'
aS'84'
p794
ag7
(g9
S'\xc0\xf3\xf9\xa6\x9b&\xec?'
tRp795
tp796
a((lp797
S'Sec13'
p798
aS'22'
p799
aS'Sec13'
p800
aS'39'
p801
aS'1'
aS'85'
p802
ag7
(g9
S"'_B\x8d]s7@"
tRp803
tp804
a((lp805
S'Sec13'
p806
aS'22'
p807
aS'Sec13'
p808
aS'41'
p809
aS'1'
aS'85'
p810
ag7
(g9
S'@b\x86\x102X7@'
tRp811
tp812
a((lp813
S'Sec13'
p814
aS'277'
p815
aS'Sec13'
p816
aS'294'
p817
aS'1'
aS'86'
p818
ag7
(g9
S'+\xc8\xbe\xe1\xd5\x968@'
tRp819
tp820
a((lp821
S'Sec13'
p822
aS'282'
p823
aS'Nup145c'
p824
aS'179'
p825
aS'1'
aS'87'
p826
ag7
(g9
S'6\xfcH\xa2@\xc2)@'
tRp827
tp828
a((lp829
S'Sec13'
p830
aS'282'
p831
aS'Nup145c'
p832
aS'438'
p833
aS'1'
aS'88'
p834
ag7
(g9
S'\xf6Ql.!\x973@'
tRp835
tp836
a((lp837
S'Sec13'
p838
aS'283'
p839
aS'Nup145c'
p840
aS'437'
p841
aS'1'
aS'89'
p842
ag7
(g9
S'\xed\x87\xc1)"\xd41@'
tRp843
tp844
a((lp845
S'Sec13'
p846
aS'286'
p847
aS'Nup145c'
p848
aS'437'
p849
aS'1'
aS'90'
p850
ag7
(g9
S'\x12M7\x93\x9b\xe25@'
tRp851
tp852
a((lp853
S'Sec13'
p854
aS'288'
p855
aS'Sec13'
p856
aS'250'
p857
aS'1'
aS'91'
p858
ag7
(g9
S'`\x89b\x9b\xebZ6@'
tRp859
tp860
a((lp861
S'Seh1'
p862
aS'1'
aS'Nup85'
p863
aS'32'
p864
aS'1'
aS'92'
p865
ag7
(g9
S'\x8bi\xeeX\xef\x8d4@'
tRp866
tp867
a((lp868
S'Seh1'
p869
aS'1'
aS'Nup85'
p870
aS'33'
p871
aS'1'
aS'93'
p872
ag7
(g9
S'\x8bi\xeeX\xef\x8d4@'
tRp873
tp874
a((lp875
S'Seh1'
p876
aS'1'
aS'Nup85'
p877
aS'4'
aS'1'
aS'94'
p878
ag7
(g9
S'\xcc\xdc~\x124\x018@'
tRp879
tp880
a((lp881
S'Seh1'
p882
aS'198'
p883
aS'Seh1'
p884
aS'279'
p885
aS'1'
aS'95'
p886
ag7
(g9
S"\x04\xbf\xc9\xd2'g6@"
tRp887
tp888
a((lp889
S'Seh1'
p890
aS'2'
aS'Nup85'
p891
aS'4'
aS'1'
aS'96'
p892
ag7
(g9
S'ZZ\x15o\x9e\xe46@'
tRp893
tp894
a((lp895
S'Seh1'
p896
aS'2'
aS'Nup85'
p897
aS'5'
aS'1'
aS'96'
p898
ag7
(g9
S'ZZ\x15o\x9e\xe46@'
tRp899
tp900
a((lp901
S'Seh1'
p902
aS'2'
aS'Nup85'
p903
aS'34'
p904
aS'1'
aS'97'
p905
ag7
(g9
S'\xf3\xa8\x02\xcfT\x8d2@'
tRp906
tp907
a((lp908
S'Seh1'
p909
aS'201'
p910
aS'Seh1'
p911
aS'279'
p912
aS'1'
aS'98'
p913
ag7
(g9
S'\x1c\x08_\xbfAK4@'
tRp914
tp915
a((lp916
S'Seh1'
p917
aS'201'
p918
aS'Seh1'
p919
aS'283'
p920
aS'1'
aS'99'
p921
ag7
(g9
S'\x1c\x08_\xbfAK4@'
tRp922
tp923
a((lp924
S'Seh1'
p925
aS'207'
p926
aS'Seh1'
p927
aS'279'
p928
aS'1'
aS'100'
p929
ag7
(g9
S'\xc0j3\xccRh)@'
tRp930
tp931
a((lp932
S'Seh1'
p933
aS'207'
p934
aS'Seh1'
p935
aS'283'
p936
aS'1'
aS'100'
p937
ag7
(g9
S'\xc0j3\xccRh)@'
tRp938
tp939
a((lp940
S'Seh1'
p941
aS'37'
p942
aS'Seh1'
p943
aS'89'
p944
aS'1'
aS'101'
p945
ag7
(g9
S'r\xcb\xc7C\xc8\xc40@'
tRp946
tp947
a((lp948
S'Seh1'
p949
aS'37'
p950
aS'Seh1'
p951
aS'92'
p952
aS'1'
aS'101'
p953
ag7
(g9
S'\xc0P\xcd\xe3\x8eU4@'
tRp954
tp955
a((lp956
S'Seh1'
p957
aS'40'
p958
aS'Nup145c'
p959
aS'44'
p960
aS'1'
aS'102'
p961
ag7
(g9
S'\xf8\x8b\xc6\x1e\xca"#\xc0'
tRp962
tp963
a((lp964
S'Seh1'
p965
aS'40'
p966
aS'Nup85'
p967
aS'2'
aS'1'
aS'103'
p968
ag7
(g9
S'\xeb\xf6h1s\xb21@'
tRp969
tp970
a((lp971
S'Seh1'
p972
aS'79'
p973
aS'Nup85'
p974
aS'2'
aS'1'
aS'104'
p975
ag7
(g9
S'\xc0R\x99D>J\xec?'
tRp976
tp977
a.