(cnumpy.core.multiarray
_reconstruct
p0
(cnumpy
ndarray
p1
(I0
tp2
S'b'
p3
tp4
Rp5
(I1
(I10
tp6
cnumpy
dtype
p7
(S'i4'
p8
I0
I1
tp9
Rp10
(I3
S'<'
p11
NNNI-1
I-1
I0
tp12
bI00
S'\x00\x00\x00\x00\x00\x00\x00\x00\x00\x00\x00\x00\x01\x00\x00\x00\x00\x00\x00\x00\x00\x00\x00\x00\x00\x00\x00\x00\x01\x00\x00\x00\x01\x00\x00\x00\x01\x00\x00\x00'
p13
tp14
b(lp15
S'/Users/ipqb/research/bmi206/bmi206_final_project/nup84_replicate1/scripts/output.1/rmfs//1.rmf3|164'
p16
aS'/Users/ipqb/research/bmi206/bmi206_final_project/nup84_replicate1/scripts/output.1/rmfs//1.rmf3|165'
p17
aS'/Users/ipqb/research/bmi206/bmi206_final_project/nup84_replicate1/scripts/output.1/rmfs//1.rmf3|166'
p18
aS'/Users/ipqb/research/bmi206/bmi206_final_project/nup84_replicate1/scripts/output.1/rmfs//1.rmf3|237'
p19
aS'/Users/ipqb/research/bmi206/bmi206_final_project/nup84_replicate1/scripts/output.1/rmfs//1.rmf3|170'
p20
aS'/Users/ipqb/research/bmi206/bmi206_final_project/nup84_replicate1/scripts/output.1/rmfs//1.rmf3|168'
p21
aS'/Users/ipqb/research/bmi206/bmi206_final_project/nup84_replicate1/scripts/output.1/rmfs//1.rmf3|169'
p22
aS'/Users/ipqb/research/bmi206/bmi206_final_project/nup84_replicate1/scripts/output.1/rmfs//1.rmf3|179'
p23
aS'/Users/ipqb/research/bmi206/bmi206_final_project/nup84_replicate1/scripts/output.1/rmfs//1.rmf3|244'
p24
aS'/Users/ipqb/research/bmi206/bmi206_final_project/nup84_replicate1/scripts/output.1/rmfs//1.rmf3|241'
p25
a(dp26
(I7
I3
tp27
((F0.7782300630268584
F-0.08318788094685987
F-0.46646108496583116
F0.4121308065132753
tp28
(F44.27363332047541
F-55.364432259498
F-75.21664901476223
tp29
tp30
s(I6
I9
tp31
((F0.6785823857542549
F-0.04910139211460666
F0.5674233715953371
F-0.46383802819933967
tp32
(F110.69503549577158
F24.261724345589137
F53.93745486758631
tp33
tp34
s(I0
I7
tp35
((F0.9353069001060798
F-0.1082467536727091
F0.2694726237634399
F-0.2021587197607941
tp36
(F26.09352606921813
F27.532327367567746
F33.837931884408384
tp37
tp38
s(I1
I6
tp39
((F0.9865868648450021
F-0.03271173018978245
F0.08888532800899976
F-0.13294998792039361
tp40
(F9.71313906237907
F21.954357678394857
F12.520883508895675
tp41
tp42
s(I3
I7
tp43
((F0.7782300630268584
F-0.08318788094685987
F-0.46646108496583116
F0.4121308065132753
tp44
(F44.27363332047541
F-55.364432259498
F-75.21664901476223
tp45
tp46
s(I2
I5
tp47
((F0.9982229542179651
F-0.03054107985629891
F-0.036811854486340306
F-0.03553960442725864
tp48
(F2.647021539943765
F1.875850231790963
F-8.345925698039125
tp49
tp50
s(I8
I5
tp51
((F0.6910397403197527
F-0.0401293491905881
F0.5684017424540879
F-0.4447169569597109
tp52
(F104.62923450797666
F25.72579886693947
F52.44529495349158
tp53
tp54
s(I5
I8
tp55
((F0.6910397403197527
F-0.0401293491905881
F0.5684017424540879
F-0.4447169569597109
tp56
(F104.62923450797666
F25.72579886693947
F52.44529495349158
tp57
tp58
s(I4
I0
tp59
((F0.9852629490395813
F-0.00029210653531217397
F0.11378919256836395
F-0.1277061297598479
tp60
(F10.478728190494394
F19.588229093792336
F21.85673866152568
tp61
tp62
s(I9
I0
tp63
((F0.535354941835588
F-0.029450897500872444
F0.6475115605015708
F-0.5415316333377285
tp64
(F132.24323196653114
F14.419722871025805
F46.29490318031667
tp65
tp66
s(I6
I7
tp67
((F0.9800205396509889
F-0.1147457092542215
F0.13666491181211674
F-0.08784000198836901
tp68
(F11.302940932243658
F9.56092285945551
F16.10185854738554
tp69
tp70
s(I7
I6
tp71
((F0.9800205396509889
F-0.1147457092542215
F0.13666491181211674
F-0.08784000198836901
tp72
(F11.302940932243658
F9.56092285945551
F16.10185854738554
tp73
tp74
s(I0
I4
tp75
((F0.9852629490395813
F-0.00029210653531217397
F0.11378919256836395
F-0.1277061297598479
tp76
(F10.478728190494394
F19.588229093792336
F21.85673866152568
tp77
tp78
s(I3
I2
tp79
((F0.6152203910065175
F-0.03654515242199878
F0.49597955961327506
F-0.6116964923637068
tp80
(F118.36947670662867
F26.559877944837723
F42.09962126820336
tp81
tp82
s(I2
I6
tp83
((F0.9955324484418792
F-0.05724763668762966
F0.02467700177692061
F-0.07091472185872444
tp84
(F5.021107613867002
F10.203255313982865
F0.3818551059809385
tp85
tp86
s(I8
I2
tp87
((F0.693247907637875
F-0.023284495612033128
F0.530126144990057
F-0.48767965019855264
tp88
(F105.00734381203948
F23.515318320181365
F50.393596288879316
tp89
tp90
s(I4
I5
tp91
((F0.9978130124201617
F0.02719658940090928
F-0.053255951712084665
F0.02816631635838564
tp92
(F-2.7012874253921666
F-5.913948151793079
F-10.614730245782194
tp93
tp94
s(I9
I3
tp95
((F0.99523630281325
F-0.08591773125643924
F0.020119637314001886
F0.04144930895337352
tp96
(F-1.108393564294687
F-1.6917487946954246
F5.834534538561538
tp97
tp98
s(I6
I0
tp99
((F0.9837370397824798
F-0.003140156537079735
F0.1223633559185299
F-0.13144879271138754
tp100
(F9.062084510849814
F21.59436803077474
F21.229775565173142
tp101
tp102
s(I7
I5
tp103
((F0.962431697844036
F-0.14558612737510832
F0.19747720217644976
F-0.11632996656720264
tp104
(F16.195537986438396
F17.57725757048913
F22.970516557590066
tp105
tp106
s(I0
I1
tp107
((F0.998979375433913
F0.034202755362687326
F0.029336041185505018
F-0.0031266069199234426
tp108
(F-1.4836722159914615
F0.6521505776515681
F7.892071547904186
tp109
tp110
s(I3
I1
tp111
((F0.5431503706599763
F-0.022372079744354702
F0.5490865743555855
F-0.6348157990805605
tp112
(F128.30967043199345
F20.82173535967589
F40.958449836938655
tp113
tp114
s(I7
I8
tp115
((F0.8359581833785354
F0.0822080314894503
F0.4690910365934475
F-0.2727074523895035
tp116
(F66.38143008384732
F12.865450824529333
F64.23533110373998
tp117
tp118
s(I2
I1
tp119
((F0.9956621990302227
F0.027107251405570035
F0.05881032447188676
F-0.0668081438078313
tp120
(F3.3557754959207813
F12.552417677587378
F12.29057670286837
tp121
tp122
s(I8
I9
tp123
((F0.995220523162247
F-0.010716364496278682
F0.04162272905108863
F-0.08768590670675656
tp124
(F1.7971076222495554
F12.6948302325804
F10.507607607441741
tp125
tp126
s(I9
I4
tp127
((F0.6716946660712549
F-0.05276957356536296
F0.5715220045981485
F-0.4684060694923465
tp128
(F110.09116602659249
F25.290928960075846
F50.94665869043719
tp129
tp130
s(I5
I1
tp131
((F0.9945444557444363
F-0.008155168851950745
F0.025040127385045474
F-0.10093468576034721
tp132
(F5.2312106508841225
F14.52508949070834
F3.7563704841346763
tp133
tp134
s(I7
I2
tp135
((F0.9593170358588327
F-0.16227457922980737
F0.1638245589788501
F-0.16290886876470997
tp136
(F18.581730628434514
F19.90092196964381
F14.853644155325798
tp137
tp138
s(I1
I5
tp139
((F0.9945444557444363
F-0.008155168851950745
F0.025040127385045474
F-0.10093468576034721
tp140
(F5.2312106508841225
F14.52508949070834
F3.7563704841346763
tp141
tp142
s(I3
I6
tp143
((F0.6706259544420812
F0.021429086635287746
F-0.5108094260942411
F0.5374712584761132
tp144
(F63.6283656994043
F-58.03901812978448
F-86.13345025430219
tp145
tp146
s(I8
I6
tp147
((F0.7398006632089185
F-0.010368202928838137
F0.5363398185283583
F-0.4061121497131534
tp148
(F94.70565055375383
F21.169146856978905
F56.7048842726418
tp149
tp150
s(I4
I1
tp151
((F0.9879386443615578
F-0.030090380482889194
F0.08048548013783892
F-0.1288172793782883
tp152
(F11.095483738599825
F20.002977489042614
F13.367522585223549
tp153
tp154
s(I9
I7
tp155
((F0.7902546545350778
F0.04232561018483459
F0.5106391024499976
F-0.3360860466564882
tp156
(F81.43639972188882
F18.802756003246557
F66.87985314017858
tp157
tp158
s(I6
I4
tp159
((F0.9999526500309076
F-0.003614960640444101
F0.008116651967531016
F-0.003968591257756977
tp160
(F-1.7161857069354198
F1.5605819426994643
F-1.0212310811882448
tp161
tp162
s(I5
I4
tp163
((F0.9978130124201617
F0.02719658940090928
F-0.053255951712084665
F0.02816631635838564
tp164
(F-2.7012874253921666
F-5.913948151793079
F-10.614730245782194
tp165
tp166
s(I7
I1
tp167
((F0.9390320586972023
F-0.134443727992829
F0.23482160610945688
F-0.21213790337056512
tp168
(F26.01472625941964
F28.897755810611784
F25.68134323878379
tp169
tp170
s(I0
I5
tp171
((F0.9928083958349034
F0.022570265697183345
F0.05759882715486811
F-0.10249120633726459
tp172
(F4.035908908762252
F14.808555276191761
F12.26581748507428
tp173
tp174
s(I1
I0
tp175
((F0.998979375433913
F0.034202755362687326
F0.029336041185505018
F-0.0031266069199234426
tp176
(F-1.4836722159914615
F0.6521505776515681
F7.892071547904186
tp177
tp178
s(I0
I8
tp179
((F0.6077930449491494
F0.010248463537175168
F0.6187233058536894
F-0.4976585720150416
tp180
(F117.02656669675666
F15.74806646310482
F52.836049594575606
tp181
tp182
s(I3
I5
tp183
((F0.6191666071391567
F0.05848645665602404
F-0.5349185923539225
F0.5719039661916205
tp184
(F75.67655322994881
F-56.094776754245544
F-87.44671453948561
tp185
tp186
s(I2
I7
tp187
((F0.9593170358588327
F-0.16227457922980737
F0.1638245589788501
F-0.16290886876470997
tp188
(F18.581730628434514
F19.90092196964381
F14.853644155325798
tp189
tp190
s(I8
I3
tp191
((F0.9886277380995789
F-0.07165111315660319
F-0.014059220545988285
F0.1314673030116966
tp192
(F0.9240900247760919
F-15.674539952279648
F-2.852626106305679
tp193
tp194
s(I4
I6
tp195
((F0.9999526500309076
F-0.003614960640444101
F0.008116651967531016
F-0.003968591257756977
tp196
(F-1.7161857069354198
F1.5605819426994643
F-1.0212310811882448
tp197
tp198
s(I9
I2
tp199
((F0.6247682741206015
F-0.05694523421224158
F0.5595396745820299
F-0.5416061267392698
tp200
(F121.18597655787696
F23.8197035460218
F46.69210446639734
tp201
tp202
s(I6
I1
tp203
((F0.9865868648450021
F-0.03271173018978245
F0.08888532800899976
F-0.13294998792039361
tp204
(F9.71313906237907
F21.954357678394857
F12.520883508895675
tp205
tp206
s(I5
I7
tp207
((F0.962431697844036
F-0.14558612737510832
F0.19747720217644976
F-0.11632996656720264
tp208
(F16.195537986438396
F17.57725757048913
F22.970516557590066
tp209
tp210
s(I7
I4
tp211
((F0.9780494644411393
F-0.11827983683439632
F0.1449262021437785
F-0.09179063806843274
tp212
(F9.979023879483137
F11.22477032607138
F14.851501488937272
tp213
tp214
s(I0
I2
tp215
((F0.9918115512304351
F0.05919840663880257
F0.09011533943776844
F-0.06844429191189623
tp216
(F2.6650932073505516
F12.290263732622833
F20.768334385962262
tp217
tp218
s(I1
I3
tp219
((F0.5431503706599763
F-0.022372079744354702
F0.5490865743555855
F-0.6348157990805605
tp220
(F128.30967043199345
F20.82173535967589
F40.958449836938655
tp221
tp222
s(I4
I8
tp223
((F0.7334225910096965
F-0.013683511490120355
F0.5411410815924733
F-0.41118170475211
tp224
(F94.15720844793847
F22.33311075926231
F54.022643836925276
tp225
tp226
s(I3
I0
tp227
((F0.5256927183597555
F-0.021088242460055272
F0.5860491235855022
F-0.6162376786907318
tp228
(F129.08963192879537
F18.14723459275976
F42.53955416039845
tp229
tp230
s(I2
I8
tp231
((F0.693247907637875
F-0.023284495612033128
F0.530126144990057
F-0.48767965019855264
tp232
(F105.00734381203948
F23.515318320181365
F50.393596288879316
tp233
tp234
s(I9
I8
tp235
((F0.995220523162247
F-0.010716364496278682
F0.04162272905108863
F-0.08768590670675656
tp236
(F1.7971076222495554
F12.6948302325804
F10.507607607441741
tp237
tp238
s(I8
I0
tp239
((F0.6077930449491494
F0.010248463537175168
F0.6187233058536894
F-0.4976585720150416
tp240
(F117.02656669675666
F15.74806646310482
F52.836049594575606
tp241
tp242
s(I6
I2
tp243
((F0.9955324484418792
F-0.05724763668762966
F0.02467700177692061
F-0.07091472185872444
tp244
(F5.021107613867002
F10.203255313982865
F0.3818551059809385
tp245
tp246
s(I5
I0
tp247
((F0.9928083958349034
F0.022570265697183345
F0.05759882715486811
F-0.10249120633726459
tp248
(F4.035908908762252
F14.808555276191761
F12.26581748507428
tp249
tp250
s(I1
I4
tp251
((F0.9879386443615578
F-0.030090380482889194
F0.08048548013783892
F-0.1288172793782883
tp252
(F11.095483738599825
F20.002977489042614
F13.367522585223549
tp253
tp254
s(I3
I9
tp255
((F0.99523630281325
F-0.08591773125643924
F0.020119637314001886
F0.04144930895337352
tp256
(F-1.108393564294687
F-1.6917487946954246
F5.834534538561538
tp257
tp258
s(I2
I3
tp259
((F0.6152203910065175
F-0.03654515242199878
F0.49597955961327506
F-0.6116964923637068
tp260
(F118.36947670662867
F26.559877944837723
F42.09962126820336
tp261
tp262
s(I1
I9
tp263
((F0.5540847586277717
F-0.03368624417041855
F0.6125837007904008
F-0.5626691094560209
tp264
(F131.25029099874172
F17.411484804951115
F45.085961184301055
tp265
tp266
s(I8
I7
tp267
((F0.8359581833785354
F0.0822080314894503
F0.4690910365934475
F-0.2727074523895035
tp268
(F66.38143008384732
F12.865450824529333
F64.23533110373998
tp269
tp270
s(I4
I2
tp271
((F0.9961769075864296
F-0.05449279072992431
F0.0164871128293238
F-0.06625918548062536
tp272
(F6.525156391725417
F8.485504259753931
F1.4817636213222567
tp273
tp274
s(I9
I6
tp275
((F0.6785823857542549
F-0.04910139211460666
F0.5674233715953371
F-0.46383802819933967
tp276
(F110.69503549577158
F24.261724345589137
F53.93745486758631
tp277
tp278
s(I6
I5
tp279
((F0.997121034869804
F-0.030898009759759284
F0.061425007212715786
F-0.03196753512510358
tp280
(F2.393846937218214
F7.853768934973935
F8.99945593640844
tp281
tp282
s(I5
I3
tp283
((F0.6191666071391567
F0.05848645665602404
F-0.5349185923539225
F0.5719039661916205
tp284
(F75.67655322994881
F-56.094776754245544
F-87.44671453948561
tp285
tp286
s(I7
I0
tp287
((F0.9353069001060798
F-0.1082467536727091
F0.2694726237634399
F-0.2021587197607941
tp288
(F26.09352606921813
F27.532327367567746
F33.837931884408384
tp289
tp290
s(I6
I8
tp291
((F0.7398006632089185
F-0.010368202928838137
F0.5363398185283583
F-0.4061121497131534
tp292
(F94.70565055375383
F21.169146856978905
F56.7048842726418
tp293
tp294
s(I0
I6
tp295
((F0.9837370397824798
F-0.003140156537079735
F0.1223633559185299
F-0.13144879271138754
tp296
(F9.062084510849814
F21.59436803077474
F21.229775565173142
tp297
tp298
s(I1
I7
tp299
((F0.9390320586972023
F-0.134443727992829
F0.23482160610945688
F-0.21213790337056512
tp300
(F26.01472625941964
F28.897755810611784
F25.68134323878379
tp301
tp302
s(I0
I9
tp303
((F0.535354941835588
F-0.029450897500872444
F0.6475115605015708
F-0.5415316333377285
tp304
(F132.24323196653114
F14.419722871025805
F46.29490318031667
tp305
tp306
s(I3
I4
tp307
((F0.6642845424120961
F0.026558185286136193
F-0.514079036519773
F0.5419810455334774
tp308
(F63.88187525277155
F-58.11020007075405
F-83.60171065437964
tp309
tp310
s(I2
I4
tp311
((F0.9961769075864296
F-0.05449279072992431
F0.0164871128293238
F-0.06625918548062536
tp312
(F6.525156391725417
F8.485504259753931
F1.4817636213222567
tp313
tp314
s(I8
I4
tp315
((F0.7334225910096965
F-0.013683511490120355
F0.5411410815924733
F-0.41118170475211
tp316
(F94.15720844793847
F22.33311075926231
F54.022643836925276
tp317
tp318
s(I5
I9
tp319
((F0.6250349072797488
F-0.07936934306518731
F0.5952391729861677
F-0.49872056204445764
tp320
(F120.30721394725865
F27.53673262989188
F47.59187694173906
tp321
tp322
s(I4
I7
tp323
((F0.9780494644411393
F-0.11827983683439632
F0.1449262021437785
F-0.09179063806843274
tp324
(F9.979023879483137
F11.22477032607138
F14.851501488937272
tp325
tp326
s(I9
I1
tp327
((F0.5540847586277717
F-0.03368624417041855
F0.6125837007904008
F-0.5626691094560209
tp328
(F131.25029099874172
F17.411484804951115
F45.085961184301055
tp329
tp330
s(I5
I6
tp331
((F0.997121034869804
F-0.030898009759759284
F0.061425007212715786
F-0.03196753512510358
tp332
(F2.393846937218214
F7.853768934973935
F8.99945593640844
tp333
tp334
s(I0
I3
tp335
((F0.5256927183597555
F-0.021088242460055272
F0.5860491235855022
F-0.6162376786907318
tp336
(F129.08963192879537
F18.14723459275976
F42.53955416039845
tp337
tp338
s(I1
I2
tp339
((F0.9956621990302227
F0.027107251405570035
F0.05881032447188676
F-0.0668081438078313
tp340
(F3.3557754959207813
F12.552417677587378
F12.29057670286837
tp341
tp342
s(I4
I9
tp343
((F0.6716946660712549
F-0.05276957356536296
F0.5715220045981485
F-0.4684060694923465
tp344
(F110.09116602659249
F25.290928960075846
F50.94665869043719
tp345
tp346
s(I2
I9
tp347
((F0.6247682741206015
F-0.05694523421224158
F0.5595396745820299
F-0.5416061267392698
tp348
(F121.18597655787696
F23.8197035460218
F46.69210446639734
tp349
tp350
s(I8
I1
tp351
((F0.6269354798160226
F0.0024684362793450433
F0.5834328640472066
F-0.5162866491784018
tp352
(F115.65883372790213
F19.053146872944453
F50.66586729359492
tp353
tp354
s(I6
I3
tp355
((F0.6706259544420812
F0.021429086635287746
F-0.5108094260942411
F0.5374712584761132
tp356
(F63.6283656994043
F-58.03901812978448
F-86.13345025430219
tp357
tp358
s(I7
I9
tp359
((F0.7902546545350778
F0.04232561018483459
F0.5106391024499976
F-0.3360860466564882
tp360
(F81.43639972188882
F18.802756003246557
F66.87985314017858
tp361
tp362
s(I3
I8
tp363
((F0.9886277380995789
F-0.07165111315660319
F-0.014059220545988285
F0.1314673030116966
tp364
(F0.9240900247760919
F-15.674539952279648
F-2.852626106305679
tp365
tp366
s(I2
I0
tp367
((F0.9918115512304351
F0.05919840663880257
F0.09011533943776844
F-0.06844429191189623
tp368
(F2.6650932073505516
F12.290263732622833
F20.768334385962262
tp369
tp370
s(I1
I8
tp371
((F0.6269354798160226
F0.0024684362793450433
F0.5834328640472066
F-0.5162866491784018
tp372
(F115.65883372790213
F19.053146872944453
F50.66586729359492
tp373
tp374
s(I4
I3
tp375
((F0.6642845424120961
F0.026558185286136193
F-0.514079036519773
F0.5419810455334774
tp376
(F63.88187525277155
F-58.11020007075405
F-83.60171065437964
tp377
tp378
s(I9
I5
tp379
((F0.6250349072797488
F-0.07936934306518731
F0.5952391729861677
F-0.49872056204445764
tp380
(F120.30721394725865
F27.53673262989188
F47.59187694173906
tp381
tp382
s(I5
I2
tp383
((F0.9982229542179651
F-0.03054107985629891
F-0.036811854486340306
F-0.03553960442725864
tp384
(F2.647021539943765
F1.875850231790963
F-8.345925698039125
tp385
tp386
stp387
.